#include <math.h>
#include <stdio.h>
#include <stdlib.h>
#include <string.h>


int main()
{
	int i,  n, sum = 0;
	scanf("%d", &n);
    for (i = 1; i <= n;i++){
			if (i % 7 == 0) continue;
			else if (i > 69&&i < 80) continue;
			else if ((i - 7) % 10 == 0) continue;
			else 
		sum += i*i;
	}
	printf("%d",sum);
	return 0;
}
			