; ModuleID = 'source-C-CXX/29/2751.c'
source_filename = "source-C-CXX/29/2751.c"
target datalayout = "e-m:e-p270:32:32-p271:32:32-p272:64:64-i64:64-f80:128-n8:16:32:64-S128"
target triple = "x86_64-pc-linux-gnu"

@.str = private unnamed_addr constant [3 x i8] c"%d\00", align 1

; Function Attrs: nofree nounwind sspstrong uwtable
define dso_local i32 @main() local_unnamed_addr #0 {
  %1 = alloca i32, align 4
  %2 = bitcast i32* %1 to i8*
  call void @llvm.lifetime.start.p0i8(i64 4, i8* nonnull %2) #4
  %3 = call i32 (i8*, ...) @__isoc99_scanf(i8* getelementptr inbounds ([3 x i8], [3 x i8]* @.str, i64 0, i64 0), i32* nonnull %1)
  %4 = load i32, i32* %1, align 4, !tbaa !5
  %5 = icmp slt i32 %4, 1
  br i1 %5, label %70, label %6

6:                                                ; preds = %0
  %7 = icmp ult i32 %4, 8
  br i1 %7, label %48, label %8

8:                                                ; preds = %6
  %9 = and i32 %4, -8
  %10 = or i32 %9, 1
  br label %11

11:                                               ; preds = %11, %8
  %12 = phi i32 [ 0, %8 ], [ %41, %11 ]
  %13 = phi <4 x i32> [ zeroinitializer, %8 ], [ %38, %11 ]
  %14 = phi <4 x i32> [ zeroinitializer, %8 ], [ %40, %11 ]
  %15 = phi <4 x i32> [ <i32 1, i32 2, i32 3, i32 4>, %8 ], [ %42, %11 ]
  %16 = add <4 x i32> %15, <i32 4, i32 4, i32 4, i32 4>
  %17 = urem <4 x i32> %15, <i32 7, i32 7, i32 7, i32 7>
  %18 = urem <4 x i32> %16, <i32 7, i32 7, i32 7, i32 7>
  %19 = icmp ne <4 x i32> %17, zeroinitializer
  %20 = icmp ne <4 x i32> %18, zeroinitializer
  %21 = add nsw <4 x i32> %15, <i32 -70, i32 -70, i32 -70, i32 -70>
  %22 = add <4 x i32> %15, <i32 -66, i32 -66, i32 -66, i32 -66>
  %23 = icmp ugt <4 x i32> %21, <i32 9, i32 9, i32 9, i32 9>
  %24 = icmp ugt <4 x i32> %22, <i32 9, i32 9, i32 9, i32 9>
  %25 = select <4 x i1> %19, <4 x i1> %23, <4 x i1> zeroinitializer
  %26 = select <4 x i1> %20, <4 x i1> %24, <4 x i1> zeroinitializer
  %27 = add nsw <4 x i32> %15, <i32 -7, i32 -7, i32 -7, i32 -7>
  %28 = add <4 x i32> %15, <i32 -3, i32 -3, i32 -3, i32 -3>
  %29 = srem <4 x i32> %27, <i32 10, i32 10, i32 10, i32 10>
  %30 = srem <4 x i32> %28, <i32 10, i32 10, i32 10, i32 10>
  %31 = icmp ne <4 x i32> %29, zeroinitializer
  %32 = icmp ne <4 x i32> %30, zeroinitializer
  %33 = mul nsw <4 x i32> %15, %15
  %34 = mul nsw <4 x i32> %16, %16
  %35 = select <4 x i1> %25, <4 x i1> %31, <4 x i1> zeroinitializer
  %36 = select <4 x i1> %26, <4 x i1> %32, <4 x i1> zeroinitializer
  %37 = select <4 x i1> %35, <4 x i32> %33, <4 x i32> zeroinitializer
  %38 = add <4 x i32> %13, %37
  %39 = select <4 x i1> %36, <4 x i32> %34, <4 x i32> zeroinitializer
  %40 = add <4 x i32> %14, %39
  %41 = add nuw i32 %12, 8
  %42 = add <4 x i32> %15, <i32 8, i32 8, i32 8, i32 8>
  %43 = icmp eq i32 %41, %9
  br i1 %43, label %44, label %11, !llvm.loop !9

44:                                               ; preds = %11
  %45 = add <4 x i32> %40, %38
  %46 = call i32 @llvm.vector.reduce.add.v4i32(<4 x i32> %45)
  %47 = icmp eq i32 %4, %9
  br i1 %47, label %70, label %48

48:                                               ; preds = %6, %44
  %49 = phi i32 [ 0, %6 ], [ %46, %44 ]
  %50 = phi i32 [ 1, %6 ], [ %10, %44 ]
  br label %51

51:                                               ; preds = %48, %66
  %52 = phi i32 [ %67, %66 ], [ %49, %48 ]
  %53 = phi i32 [ %68, %66 ], [ %50, %48 ]
  %54 = urem i32 %53, 7
  %55 = icmp eq i32 %54, 0
  %56 = add nsw i32 %53, -70
  %57 = icmp ult i32 %56, 10
  %58 = select i1 %55, i1 true, i1 %57
  br i1 %58, label %66, label %59

59:                                               ; preds = %51
  %60 = add nsw i32 %53, -7
  %61 = srem i32 %60, 10
  %62 = icmp eq i32 %61, 0
  br i1 %62, label %66, label %63

63:                                               ; preds = %59
  %64 = mul nsw i32 %53, %53
  %65 = add nsw i32 %52, %64
  br label %66

66:                                               ; preds = %59, %51, %63
  %67 = phi i32 [ %52, %51 ], [ %52, %59 ], [ %65, %63 ]
  %68 = add nuw i32 %53, 1
  %69 = icmp eq i32 %53, %4
  br i1 %69, label %70, label %51, !llvm.loop !12

70:                                               ; preds = %66, %44, %0
  %71 = phi i32 [ 0, %0 ], [ %46, %44 ], [ %67, %66 ]
  %72 = call i32 (i8*, ...) @printf(i8* nonnull dereferenceable(1) getelementptr inbounds ([3 x i8], [3 x i8]* @.str, i64 0, i64 0), i32 %71)
  call void @llvm.lifetime.end.p0i8(i64 4, i8* nonnull %2) #4
  ret i32 0
}

; Function Attrs: argmemonly mustprogress nofree nosync nounwind willreturn
declare void @llvm.lifetime.start.p0i8(i64 immarg, i8* nocapture) #1

; Function Attrs: nofree nounwind
declare noundef i32 @__isoc99_scanf(i8* nocapture noundef readonly, ...) local_unnamed_addr #2

; Function Attrs: nofree nounwind
declare noundef i32 @printf(i8* nocapture noundef readonly, ...) local_unnamed_addr #2

; Function Attrs: argmemonly mustprogress nofree nosync nounwind willreturn
declare void @llvm.lifetime.end.p0i8(i64 immarg, i8* nocapture) #1

; Function Attrs: nofree nosync nounwind readnone willreturn
declare i32 @llvm.vector.reduce.add.v4i32(<4 x i32>) #3


!llvm.module.flags = !{!0, !1, !2, !3}
!llvm.ident = !{!4}

!0 = !{i32 1, !"wchar_size", i32 4}
!1 = !{i32 7, !"PIC Level", i32 2}
!2 = !{i32 7, !"PIE Level", i32 2}
!3 = !{i32 7, !"uwtable", i32 1}
!4 = !{!"clang version 13.0.0"}
!5 = !{!6, !6, i64 0}
!6 = !{!"int", !7, i64 0}
!7 = !{!"omnipotent char", !8, i64 0}
!8 = !{!"Simple C/C++ TBAA"}
!9 = distinct !{!9, !10, !11}
!10 = !{!"llvm.loop.mustprogress"}
!11 = !{!"llvm.loop.isvectorized", i32 1}
!12 = distinct !{!12, !10, !13, !11}
!13 = !{!"llvm.loop.unroll.runtime.disable"}
